target datalayout = "e-m:e-p270:32:32-p271:32:32-p272:64:64-i64:64-i128:128-f80:128-n8:16:32:64-S128"
target triple = "x86_64-pc-linux-gnu"

%struct.pmix_ring_msg = type { i32, ptr, ptr }
%struct.buf_t = type { i32, ptr, i32, i32, i8, i8 }

@pmix_stepd_rank = internal global i32 -1, align 4
@pmix_stepd_width = internal global i32 16, align 4
@plugin_type = external constant [0 x i8], align 1
@pmix_ring_children = internal global i32 0, align 4
@pmix_ring_msgs = internal global ptr null, align 8
@pmix_ring_count = internal global i32 0, align 4
@.str.13 = private unnamed_addr constant [79 x i8] c"%s: %s: mpi/pmi2: in pmix_ring_in rank=%d ring_id=%d count=%d left=%s right=%s\00", align 1
@__func__.pmix_ring_in = private unnamed_addr constant [13 x i8] c"pmix_ring_in\00", align 1
@.str.14 = private unnamed_addr constant [79 x i8] c"%s: %s: mpi/pmi2: rank=%d sending RING_IN to rank=%d count=%d left=%s right=%s\00", align 1
@.str.15 = private unnamed_addr constant [35 x i8] c"%s: %s: mpi/pmi2: out pmix_ring_in\00", align 1

; Function Attrs: nounwind uwtable
define internal i32 @pmix_stepd_rank_parent() #0 {
  %1 = alloca i32, align 4
  call void @llvm.lifetime.start.p0(i64 4, ptr %1) #6
  store i32 -1, ptr %1, align 4
  %2 = load i32, ptr @pmix_stepd_rank, align 4
  %3 = icmp sgt i32 %2, 0
  br i1 %3, label %4, label %9

4:                                                ; preds = %0
  %5 = load i32, ptr @pmix_stepd_rank, align 4
  %6 = sub nsw i32 %5, 1
  %7 = load i32, ptr @pmix_stepd_width, align 4
  %8 = sdiv i32 %6, %7
  store i32 %8, ptr %1, align 4
  br label %9

9:                                                ; preds = %4, %0
  %10 = load i32, ptr %1, align 4
  call void @llvm.lifetime.end.p0(i64 4, ptr %1) #6
  ret i32 %10
}

; Function Attrs: nounwind uwtable
define dso_local i32 @pmix_ring_in(i32 noundef %0, i32 noundef %1, ptr noundef %2, ptr noundef %3) #0 {
  %5 = alloca i32, align 4
  %6 = alloca i32, align 4
  %7 = alloca ptr, align 8
  %8 = alloca ptr, align 8
  %9 = alloca i32, align 4
  %10 = alloca i32, align 4
  %11 = alloca ptr, align 8
  %12 = alloca ptr, align 8
  %13 = alloca i32, align 4
  %14 = alloca ptr, align 8
  %15 = alloca i32, align 4
  %16 = alloca i32, align 4
  %17 = alloca ptr, align 8
  %18 = alloca i32, align 4
  %19 = alloca i32, align 4
  %20 = alloca i32, align 4
  store i32 %0, ptr %5, align 4
  store i32 %1, ptr %6, align 4
  store ptr %2, ptr %7, align 8
  store ptr %3, ptr %8, align 8
  call void @llvm.lifetime.start.p0(i64 4, ptr %9) #6
  call void @llvm.lifetime.start.p0(i64 4, ptr %10) #6
  store i32 0, ptr %10, align 4
  br label %21

21:                                               ; preds = %4
  br label %22

22:                                               ; preds = %21
  %23 = call i32 @slurm_get_log_level()
  %24 = icmp sge i32 %23, 7
  br i1 %24, label %25, label %31

25:                                               ; preds = %22
  %26 = load i32, ptr @pmix_stepd_rank, align 4
  %27 = load i32, ptr %5, align 4
  %28 = load i32, ptr %6, align 4
  %29 = load ptr, ptr %7, align 8
  %30 = load ptr, ptr %8, align 8
  call void (i32, ptr, ...) @slurm_log_var(i32 noundef 7, ptr noundef @.str.13, ptr noundef @plugin_type, ptr noundef @__func__.pmix_ring_in, i32 noundef %26, i32 noundef %27, i32 noundef %28, ptr noundef %29, ptr noundef %30)
  br label %31

31:                                               ; preds = %25, %22
  br label %32

32:                                               ; preds = %31
  br label %33

33:                                               ; preds = %32
  br label %34

34:                                               ; preds = %33
  br label %35

35:                                               ; preds = %34
  call void @llvm.lifetime.start.p0(i64 8, ptr %11) #6
  %36 = load ptr, ptr @pmix_ring_msgs, align 8
  %37 = load i32, ptr %5, align 4
  %38 = sext i32 %37 to i64
  %39 = getelementptr inbounds %struct.pmix_ring_msg, ptr %36, i64 %38
  store ptr %39, ptr %11, align 8
  %40 = load i32, ptr %6, align 4
  %41 = load ptr, ptr %11, align 8
  %42 = getelementptr inbounds nuw %struct.pmix_ring_msg, ptr %41, i32 0, i32 0
  store i32 %40, ptr %42, align 8
  %43 = load ptr, ptr %7, align 8
  %44 = call ptr @slurm_xstrdup(ptr noundef %43)
  %45 = load ptr, ptr %11, align 8
  %46 = getelementptr inbounds nuw %struct.pmix_ring_msg, ptr %45, i32 0, i32 1
  store ptr %44, ptr %46, align 8
  %47 = load ptr, ptr %8, align 8
  %48 = call ptr @slurm_xstrdup(ptr noundef %47)
  %49 = load ptr, ptr %11, align 8
  %50 = getelementptr inbounds nuw %struct.pmix_ring_msg, ptr %49, i32 0, i32 2
  store ptr %48, ptr %50, align 8
  %51 = load i32, ptr @pmix_ring_count, align 4
  %52 = add nsw i32 %51, 1
  store i32 %52, ptr @pmix_ring_count, align 4
  %53 = load i32, ptr @pmix_ring_count, align 4
  %54 = load i32, ptr @pmix_ring_children, align 4
  %55 = icmp eq i32 %53, %54
  br i1 %55, label %56, label %161

56:                                               ; preds = %35
  call void @llvm.lifetime.start.p0(i64 8, ptr %12) #6
  %57 = load ptr, ptr @pmix_ring_msgs, align 8
  %58 = getelementptr inbounds %struct.pmix_ring_msg, ptr %57, i64 0
  %59 = getelementptr inbounds nuw %struct.pmix_ring_msg, ptr %58, i32 0, i32 1
  %60 = load ptr, ptr %59, align 8
  store ptr %60, ptr %12, align 8
  call void @llvm.lifetime.start.p0(i64 4, ptr %13) #6
  %61 = load i32, ptr @pmix_ring_children, align 4
  %62 = sub nsw i32 %61, 1
  store i32 %62, ptr %13, align 4
  call void @llvm.lifetime.start.p0(i64 8, ptr %14) #6
  %63 = load ptr, ptr @pmix_ring_msgs, align 8
  %64 = load i32, ptr %13, align 4
  %65 = sext i32 %64 to i64
  %66 = getelementptr inbounds %struct.pmix_ring_msg, ptr %63, i64 %65
  %67 = getelementptr inbounds nuw %struct.pmix_ring_msg, ptr %66, i32 0, i32 2
  %68 = load ptr, ptr %67, align 8
  store ptr %68, ptr %14, align 8
  call void @llvm.lifetime.start.p0(i64 4, ptr %15) #6
  store i32 0, ptr %15, align 4
  store i32 0, ptr %9, align 4
  br label %69

69:                                               ; preds = %82, %56
  %70 = load i32, ptr %9, align 4
  %71 = load i32, ptr @pmix_ring_children, align 4
  %72 = icmp slt i32 %70, %71
  br i1 %72, label %73, label %85

73:                                               ; preds = %69
  %74 = load ptr, ptr @pmix_ring_msgs, align 8
  %75 = load i32, ptr %9, align 4
  %76 = sext i32 %75 to i64
  %77 = getelementptr inbounds %struct.pmix_ring_msg, ptr %74, i64 %76
  %78 = getelementptr inbounds nuw %struct.pmix_ring_msg, ptr %77, i32 0, i32 0
  %79 = load i32, ptr %78, align 8
  %80 = load i32, ptr %15, align 4
  %81 = add i32 %80, %79
  store i32 %81, ptr %15, align 4
  br label %82

82:                                               ; preds = %73
  %83 = load i32, ptr %9, align 4
  %84 = add nsw i32 %83, 1
  store i32 %84, ptr %9, align 4
  br label %69, !llvm.loop !19

85:                                               ; preds = %69
  %86 = load i32, ptr @pmix_stepd_rank, align 4
  %87 = icmp sgt i32 %86, 0
  br i1 %87, label %88, label %156

88:                                               ; preds = %85
  call void @llvm.lifetime.start.p0(i64 4, ptr %16) #6
  %89 = load i32, ptr @pmix_stepd_rank, align 4
  store i32 %89, ptr %16, align 4
  call void @llvm.lifetime.start.p0(i64 8, ptr %17) #6
  %90 = call ptr @slurm_init_buf(i32 noundef 1024)
  store ptr %90, ptr %17, align 8
  %91 = load ptr, ptr %17, align 8
  call void @slurm_pack16(i16 noundef zeroext 7, ptr noundef %91)
  %92 = load i32, ptr %16, align 4
  %93 = load ptr, ptr %17, align 8
  call void @slurm_pack32(i32 noundef %92, ptr noundef %93)
  %94 = load i32, ptr %15, align 4
  %95 = load ptr, ptr %17, align 8
  call void @slurm_pack32(i32 noundef %94, ptr noundef %95)
  br label %96

96:                                               ; preds = %88
  call void @llvm.lifetime.start.p0(i64 4, ptr %18) #6
  store i32 0, ptr %18, align 4
  %97 = load ptr, ptr %12, align 8
  %98 = icmp ne ptr %97, null
  br i1 %98, label %99, label %104

99:                                               ; preds = %96
  %100 = load ptr, ptr %12, align 8
  %101 = call i64 @strlen(ptr noundef %100) #7
  %102 = trunc i64 %101 to i32
  %103 = add i32 %102, 1
  store i32 %103, ptr %18, align 4
  br label %104

104:                                              ; preds = %99, %96
  %105 = load ptr, ptr %12, align 8
  %106 = load i32, ptr %18, align 4
  %107 = load ptr, ptr %17, align 8
  call void @slurm_packmem(ptr noundef %105, i32 noundef %106, ptr noundef %107)
  call void @llvm.lifetime.end.p0(i64 4, ptr %18) #6
  br label %108

108:                                              ; preds = %104
  br label %109

109:                                              ; preds = %108
  br label %110

110:                                              ; preds = %109
  call void @llvm.lifetime.start.p0(i64 4, ptr %19) #6
  store i32 0, ptr %19, align 4
  %111 = load ptr, ptr %14, align 8
  %112 = icmp ne ptr %111, null
  br i1 %112, label %113, label %118

113:                                              ; preds = %110
  %114 = load ptr, ptr %14, align 8
  %115 = call i64 @strlen(ptr noundef %114) #7
  %116 = trunc i64 %115 to i32
  %117 = add i32 %116, 1
  store i32 %117, ptr %19, align 4
  br label %118

118:                                              ; preds = %113, %110
  %119 = load ptr, ptr %14, align 8
  %120 = load i32, ptr %19, align 4
  %121 = load ptr, ptr %17, align 8
  call void @slurm_packmem(ptr noundef %119, i32 noundef %120, ptr noundef %121)
  call void @llvm.lifetime.end.p0(i64 4, ptr %19) #6
  br label %122

122:                                              ; preds = %118
  br label %123

123:                                              ; preds = %122
  call void @llvm.lifetime.start.p0(i64 4, ptr %20) #6
  %124 = call i32 @pmix_stepd_rank_parent()
  store i32 %124, ptr %20, align 4
  br label %125

125:                                              ; preds = %123
  br label %126

126:                                              ; preds = %125
  %127 = call i32 @slurm_get_log_level()
  %128 = icmp sge i32 %127, 7
  br i1 %128, label %129, label %135

129:                                              ; preds = %126
  %130 = load i32, ptr %16, align 4
  %131 = load i32, ptr %20, align 4
  %132 = load i32, ptr %6, align 4
  %133 = load ptr, ptr %12, align 8
  %134 = load ptr, ptr %14, align 8
  call void (i32, ptr, ...) @slurm_log_var(i32 noundef 7, ptr noundef @.str.14, ptr noundef @plugin_type, ptr noundef @__func__.pmix_ring_in, i32 noundef %130, i32 noundef %131, i32 noundef %132, ptr noundef %133, ptr noundef %134)
  br label %135

135:                                              ; preds = %129, %126
  br label %136

136:                                              ; preds = %135
  br label %137

137:                                              ; preds = %136
  br label %138

138:                                              ; preds = %137
  br label %139

139:                                              ; preds = %138
  %140 = load ptr, ptr %17, align 8
  %141 = getelementptr inbounds nuw %struct.buf_t, ptr %140, i32 0, i32 1
  %142 = load ptr, ptr %141, align 8
  %143 = load ptr, ptr %17, align 8
  %144 = getelementptr inbounds nuw %struct.buf_t, ptr %143, i32 0, i32 2
  %145 = load i32, ptr %144, align 8
  %146 = load i32, ptr %20, align 4
  %147 = call i32 @pmix_stepd_send(ptr noundef %142, i32 noundef %145, i32 noundef %146)
  store i32 %147, ptr %10, align 4
  br label %148

148:                                              ; preds = %139
  %149 = load ptr, ptr %17, align 8
  %150 = icmp ne ptr %149, null
  br i1 %150, label %151, label %153

151:                                              ; preds = %148
  %152 = load ptr, ptr %17, align 8
  call void @slurm_free_buf(ptr noundef %152)
  br label %153

153:                                              ; preds = %151, %148
  store ptr null, ptr %17, align 8
  br label %154

154:                                              ; preds = %153
  br label %155

155:                                              ; preds = %154
  call void @llvm.lifetime.end.p0(i64 4, ptr %20) #6
  call void @llvm.lifetime.end.p0(i64 8, ptr %17) #6
  call void @llvm.lifetime.end.p0(i64 4, ptr %16) #6
  br label %160

156:                                              ; preds = %85
  %157 = load ptr, ptr %14, align 8
  %158 = load ptr, ptr %12, align 8
  %159 = call i32 @pmix_ring_out(i32 noundef 0, ptr noundef %157, ptr noundef %158)
  br label %160

160:                                              ; preds = %156, %155
  call void @llvm.lifetime.end.p0(i64 4, ptr %15) #6
  call void @llvm.lifetime.end.p0(i64 8, ptr %14) #6
  call void @llvm.lifetime.end.p0(i64 4, ptr %13) #6
  call void @llvm.lifetime.end.p0(i64 8, ptr %12) #6
  br label %161

161:                                              ; preds = %160, %35
  br label %162

162:                                              ; preds = %161
  br label %163

163:                                              ; preds = %162
  %164 = call i32 @slurm_get_log_level()
  %165 = icmp sge i32 %164, 7
  br i1 %165, label %166, label %167

166:                                              ; preds = %163
  call void (i32, ptr, ...) @slurm_log_var(i32 noundef 7, ptr noundef @.str.15, ptr noundef @plugin_type, ptr noundef @__func__.pmix_ring_in)
  br label %167

167:                                              ; preds = %166, %163
  br label %168

168:                                              ; preds = %167
  br label %169

169:                                              ; preds = %168
  br label %170

170:                                              ; preds = %169
  br label %171

171:                                              ; preds = %170
  %172 = load i32, ptr %10, align 4
  call void @llvm.lifetime.end.p0(i64 8, ptr %11) #6
  call void @llvm.lifetime.end.p0(i64 4, ptr %10) #6
  call void @llvm.lifetime.end.p0(i64 4, ptr %9) #6
  ret i32 %172
}